; ModuleID = 'source-C-CXX/61/86.c'
source_filename = "source-C-CXX/61/86.c"
target datalayout = "e-m:e-p270:32:32-p271:32:32-p272:64:64-i64:64-f80:128-n8:16:32:64-S128"
target triple = "x86_64-pc-linux-gnu"

; Function Attrs: nounwind sspstrong uwtable
define dso_local i32 @main() local_unnamed_addr #0 {
  %1 = alloca [1000 x i8], align 16
  %2 = getelementptr inbounds [1000 x i8], [1000 x i8]* %1, i64 0, i64 0
  call void @llvm.lifetime.start.p0i8(i64 1000, i8* nonnull %2) #7
  call void @llvm.memset.p0i8.i64(i8* noundef nonnull align 16 dereferenceable(1000) %2, i8 0, i64 1000, i1 false)
  %3 = call i32 (i8*, ...) bitcast (i32 (...)* @gets to i32 (i8*, ...)*)(i8* nonnull %2) #7
  %4 = call i64 @strlen(i8* noundef nonnull %2) #8
  %5 = shl i64 %4, 32
  %6 = ashr exact i64 %5, 32
  br label %7

7:                                                ; preds = %26, %0
  %8 = phi i32 [ 0, %0 ], [ %30, %26 ]
  %9 = sext i32 %8 to i64
  %10 = getelementptr inbounds [1000 x i8], [1000 x i8]* %1, i64 0, i64 %9
  %11 = load i8, i8* %10, align 1, !tbaa !5
  switch i8 %11, label %26 [
    i8 0, label %31
    i8 32, label %12
  ]

12:                                               ; preds = %7
  %13 = add nsw i64 %9, 1
  %14 = call i64 @llvm.smax.i64(i64 %13, i64 %6)
  br label %15

15:                                               ; preds = %12, %19
  %16 = phi i64 [ %9, %12 ], [ %17, %19 ]
  %17 = add nsw i64 %16, 1
  %18 = icmp slt i64 %17, %6
  br i1 %18, label %19, label %23

19:                                               ; preds = %15
  %20 = getelementptr inbounds [1000 x i8], [1000 x i8]* %1, i64 0, i64 %17
  %21 = load i8, i8* %20, align 1, !tbaa !5
  %22 = icmp eq i8 %21, 32
  br i1 %22, label %15, label %23, !llvm.loop !8

23:                                               ; preds = %15, %19
  %24 = phi i64 [ %14, %15 ], [ %16, %19 ]
  %25 = trunc i64 %24 to i32
  br label %26

26:                                               ; preds = %23, %7
  %27 = phi i32 [ %8, %7 ], [ %25, %23 ]
  %28 = sext i8 %11 to i32
  %29 = call i32 @putchar(i32 %28)
  %30 = add nsw i32 %27, 1
  br label %7, !llvm.loop !10

31:                                               ; preds = %7
  call void @llvm.lifetime.end.p0i8(i64 1000, i8* nonnull %2) #7
  ret i32 0
}

; Function Attrs: argmemonly mustprogress nofree nosync nounwind willreturn
declare void @llvm.lifetime.start.p0i8(i64 immarg, i8* nocapture) #1

; Function Attrs: argmemonly mustprogress nofree nounwind willreturn writeonly
declare void @llvm.memset.p0i8.i64(i8* nocapture writeonly, i8, i64, i1 immarg) #2

declare i32 @gets(...) local_unnamed_addr #3

; Function Attrs: argmemonly mustprogress nofree nounwind readonly willreturn
declare i64 @strlen(i8* nocapture) local_unnamed_addr #4

; Function Attrs: argmemonly mustprogress nofree nosync nounwind willreturn
declare void @llvm.lifetime.end.p0i8(i64 immarg, i8* nocapture) #1

; Function Attrs: nofree nounwind
declare noundef i32 @putchar(i32 noundef) local_unnamed_addr #5

; Function Attrs: nofree nosync nounwind readnone speculatable willreturn
declare i64 @llvm.smax.i64(i64, i64) #6


!llvm.module.flags = !{!0, !1, !2, !3}
!llvm.ident = !{!4}

!0 = !{i32 1, !"wchar_size", i32 4}
!1 = !{i32 7, !"PIC Level", i32 2}
!2 = !{i32 7, !"PIE Level", i32 2}
!3 = !{i32 7, !"uwtable", i32 1}
!4 = !{!"clang version 13.0.0"}
!5 = !{!6, !6, i64 0}
!6 = !{!"omnipotent char", !7, i64 0}
!7 = !{!"Simple C/C++ TBAA"}
!8 = distinct !{!8, !9}
!9 = !{!"llvm.loop.mustprogress"}
!10 = distinct !{!10, !9}
